; ModuleID = '58/771.cpp'
source_filename = "58/771.cpp"
target datalayout = "e-m:e-p270:32:32-p271:32:32-p272:64:64-i64:64-f80:128-n8:16:32:64-S128"
target triple = "x86_64-pc-linux-gnu"

%"class.std::ios_base::Init" = type { i8 }
%"class.std::basic_istream" = type { i32 (...)**, i64, %"class.std::basic_ios" }
%"class.std::basic_ios" = type { %"class.std::ios_base", %"class.std::basic_ostream"*, i8, i8, %"class.std::basic_streambuf"*, %"class.std::ctype"*, %"class.std::num_put"*, %"class.std::num_get"* }
%"class.std::ios_base" = type { i32 (...)**, i64, i64, i32, i32, i32, %"struct.std::ios_base::_Callback_list"*, %"struct.std::ios_base::_Words", [8 x %"struct.std::ios_base::_Words"], i32, %"struct.std::ios_base::_Words"*, %"class.std::locale" }
%"struct.std::ios_base::_Callback_list" = type { %"struct.std::ios_base::_Callback_list"*, void (i32, %"class.std::ios_base"*, i32)*, i32, i32 }
%"struct.std::ios_base::_Words" = type { i8*, i64 }
%"class.std::locale" = type { %"class.std::locale::_Impl"* }
%"class.std::locale::_Impl" = type { i32, %"class.std::locale::facet"**, i64, %"class.std::locale::facet"**, i8** }
%"class.std::locale::facet" = type <{ i32 (...)**, i32, [4 x i8] }>
%"class.std::basic_ostream" = type { i32 (...)**, %"class.std::basic_ios" }
%"class.std::basic_streambuf" = type { i32 (...)**, i8*, i8*, i8*, i8*, i8*, i8*, %"class.std::locale" }
%"class.std::ctype" = type <{ %"class.std::locale::facet.base", [4 x i8], %struct.__locale_struct*, i8, [7 x i8], i32*, i32*, i16*, i8, [256 x i8], [256 x i8], i8, [6 x i8] }>
%"class.std::locale::facet.base" = type <{ i32 (...)**, i32 }>
%struct.__locale_struct = type { [13 x %struct.__locale_data*], i16*, i32*, i32*, [13 x i8*] }
%struct.__locale_data = type opaque
%"class.std::num_put" = type { %"class.std::locale::facet.base", [4 x i8] }
%"class.std::num_get" = type { %"class.std::locale::facet.base", [4 x i8] }

@_ZStL8__ioinit = internal global %"class.std::ios_base::Init" zeroinitializer, align 1
@__dso_handle = external hidden global i8
@_ZSt3cin = external dso_local global %"class.std::basic_istream", align 8
@_ZSt4cout = external dso_local global %"class.std::basic_ostream", align 8
@llvm.global_ctors = appending global [1 x { i32, void ()*, i8* }] [{ i32, void ()*, i8* } { i32 65535, void ()* @_GLOBAL__sub_I_771.cpp, i8* null }]

; Function Attrs: noinline uwtable
define internal void @__cxx_global_var_init() #0 section ".text.startup" {
  call void @_ZNSt8ios_base4InitC1Ev(%"class.std::ios_base::Init"* @_ZStL8__ioinit)
  %1 = call i32 @__cxa_atexit(void (i8*)* bitcast (void (%"class.std::ios_base::Init"*)* @_ZNSt8ios_base4InitD1Ev to void (i8*)*), i8* getelementptr inbounds (%"class.std::ios_base::Init", %"class.std::ios_base::Init"* @_ZStL8__ioinit, i32 0, i32 0), i8* @__dso_handle) #3
  ret void
}

declare dso_local void @_ZNSt8ios_base4InitC1Ev(%"class.std::ios_base::Init"*) unnamed_addr #1

; Function Attrs: nounwind
declare dso_local void @_ZNSt8ios_base4InitD1Ev(%"class.std::ios_base::Init"*) unnamed_addr #2

; Function Attrs: nounwind
declare dso_local i32 @__cxa_atexit(void (i8*)*, i8*, i8*) #3

; Function Attrs: noinline norecurse uwtable
define dso_local i32 @main() #4 {
  %1 = alloca i32, align 4
  %2 = alloca i8, align 1
  %3 = alloca i32, align 4
  %4 = alloca i32, align 4
  %5 = alloca i32, align 4
  %6 = alloca i32, align 4
  store i32 0, i32* %1, align 4
  store i32 1, i32* %6, align 4
  %7 = call dereferenceable(280) %"class.std::basic_istream"* @_ZNSirsERi(%"class.std::basic_istream"* @_ZSt3cin, i32* dereferenceable(4) %5)
  %8 = call i32 @getchar()
  store i32 1, i32* %3, align 4
  br label %9

9:                                                ; preds = %95, %0
  %10 = load i32, i32* %3, align 4
  %11 = load i32, i32* %5, align 4
  %12 = icmp sle i32 %10, %11
  br i1 %12, label %13, label %98

13:                                               ; preds = %9
  store i32 1, i32* %6, align 4
  store i32 1, i32* %4, align 4
  br label %14

14:                                               ; preds = %82, %13
  %15 = load i32, i32* %4, align 4
  %16 = icmp sle i32 %15, 88
  br i1 %16, label %17, label %85

17:                                               ; preds = %14
  %18 = call i32 @getchar()
  %19 = trunc i32 %18 to i8
  store i8 %19, i8* %2, align 1
  %20 = load i8, i8* %2, align 1
  %21 = sext i8 %20 to i32
  %22 = icmp eq i32 %21, 10
  br i1 %22, label %23, label %24

23:                                               ; preds = %17
  br label %85

24:                                               ; preds = %17
  %25 = load i32, i32* %4, align 4
  %26 = icmp eq i32 %25, 1
  br i1 %26, label %27, label %50

27:                                               ; preds = %24
  %28 = load i8, i8* %2, align 1
  %29 = sext i8 %28 to i32
  %30 = icmp slt i32 64, %29
  br i1 %30, label %31, label %35

31:                                               ; preds = %27
  %32 = load i8, i8* %2, align 1
  %33 = sext i8 %32 to i32
  %34 = icmp slt i32 %33, 91
  br i1 %34, label %47, label %35

35:                                               ; preds = %31, %27
  %36 = load i8, i8* %2, align 1
  %37 = sext i8 %36 to i32
  %38 = icmp eq i32 %37, 95
  br i1 %38, label %47, label %39

39:                                               ; preds = %35
  %40 = load i8, i8* %2, align 1
  %41 = sext i8 %40 to i32
  %42 = icmp slt i32 96, %41
  br i1 %42, label %43, label %48

43:                                               ; preds = %39
  %44 = load i8, i8* %2, align 1
  %45 = sext i8 %44 to i32
  %46 = icmp slt i32 %45, 123
  br i1 %46, label %47, label %48

47:                                               ; preds = %43, %35, %31
  br label %49

48:                                               ; preds = %43, %39
  store i32 0, i32* %6, align 4
  br label %49

49:                                               ; preds = %48, %47
  br label %81

50:                                               ; preds = %24
  %51 = load i8, i8* %2, align 1
  %52 = sext i8 %51 to i32
  %53 = icmp slt i32 64, %52
  br i1 %53, label %54, label %58

54:                                               ; preds = %50
  %55 = load i8, i8* %2, align 1
  %56 = sext i8 %55 to i32
  %57 = icmp slt i32 %56, 91
  br i1 %57, label %78, label %58

58:                                               ; preds = %54, %50
  %59 = load i8, i8* %2, align 1
  %60 = sext i8 %59 to i32
  %61 = icmp eq i32 %60, 95
  br i1 %61, label %78, label %62

62:                                               ; preds = %58
  %63 = load i8, i8* %2, align 1
  %64 = sext i8 %63 to i32
  %65 = icmp slt i32 96, %64
  br i1 %65, label %66, label %70

66:                                               ; preds = %62
  %67 = load i8, i8* %2, align 1
  %68 = sext i8 %67 to i32
  %69 = icmp slt i32 %68, 123
  br i1 %69, label %78, label %70

70:                                               ; preds = %66, %62
  %71 = load i8, i8* %2, align 1
  %72 = sext i8 %71 to i32
  %73 = icmp slt i32 47, %72
  br i1 %73, label %74, label %79

74:                                               ; preds = %70
  %75 = load i8, i8* %2, align 1
  %76 = sext i8 %75 to i32
  %77 = icmp slt i32 %76, 58
  br i1 %77, label %78, label %79

78:                                               ; preds = %74, %66, %58, %54
  br label %80

79:                                               ; preds = %74, %70
  store i32 0, i32* %6, align 4
  br label %80

80:                                               ; preds = %79, %78
  br label %81

81:                                               ; preds = %80, %49
  br label %82

82:                                               ; preds = %81
  %83 = load i32, i32* %4, align 4
  %84 = add nsw i32 %83, 1
  store i32 %84, i32* %4, align 4
  br label %14

85:                                               ; preds = %23, %14
  %86 = load i32, i32* %6, align 4
  %87 = icmp eq i32 %86, 1
  br i1 %87, label %88, label %91

88:                                               ; preds = %85
  %89 = call dereferenceable(272) %"class.std::basic_ostream"* @_ZNSolsEi(%"class.std::basic_ostream"* @_ZSt4cout, i32 1)
  %90 = call dereferenceable(272) %"class.std::basic_ostream"* @_ZNSolsEPFRSoS_E(%"class.std::basic_ostream"* %89, %"class.std::basic_ostream"* (%"class.std::basic_ostream"*)* @_ZSt4endlIcSt11char_traitsIcEERSt13basic_ostreamIT_T0_ES6_)
  br label %94

91:                                               ; preds = %85
  %92 = call dereferenceable(272) %"class.std::basic_ostream"* @_ZNSolsEi(%"class.std::basic_ostream"* @_ZSt4cout, i32 0)
  %93 = call dereferenceable(272) %"class.std::basic_ostream"* @_ZNSolsEPFRSoS_E(%"class.std::basic_ostream"* %92, %"class.std::basic_ostream"* (%"class.std::basic_ostream"*)* @_ZSt4endlIcSt11char_traitsIcEERSt13basic_ostreamIT_T0_ES6_)
  br label %94

94:                                               ; preds = %91, %88
  br label %95

95:                                               ; preds = %94
  %96 = load i32, i32* %3, align 4
  %97 = add nsw i32 %96, 1
  store i32 %97, i32* %3, align 4
  br label %9

98:                                               ; preds = %9
  ret i32 0
}

declare dso_local dereferenceable(280) %"class.std::basic_istream"* @_ZNSirsERi(%"class.std::basic_istream"*, i32* dereferenceable(4)) #1

declare dso_local i32 @getchar() #1

declare dso_local dereferenceable(272) %"class.std::basic_ostream"* @_ZNSolsEi(%"class.std::basic_ostream"*, i32) #1

declare dso_local dereferenceable(272) %"class.std::basic_ostream"* @_ZNSolsEPFRSoS_E(%"class.std::basic_ostream"*, %"class.std::basic_ostream"* (%"class.std::basic_ostream"*)*) #1

declare dso_local dereferenceable(272) %"class.std::basic_ostream"* @_ZSt4endlIcSt11char_traitsIcEERSt13basic_ostreamIT_T0_ES6_(%"class.std::basic_ostream"* dereferenceable(272)) #1

; Function Attrs: noinline uwtable
define internal void @_GLOBAL__sub_I_771.cpp() #0 section ".text.startup" {
  call void @__cxx_global_var_init()
  ret void
}


!llvm.module.flags = !{!0}
!llvm.ident = !{!1}

!0 = !{i32 1, !"wchar_size", i32 4}
!1 = !{!"clang version 10.0.0-4ubuntu1 "}
